target datalayout = "e-m:e-p270:32:32-p271:32:32-p272:64:64-i64:64-i128:128-f80:128-n8:16:32:64-S128"
target triple = "x86_64-pc-linux-gnu"

%struct.stat = type { i64, i64, i64, i32, i32, i32, i32, i64, i64, i64, i64, %struct.timespec, %struct.timespec, %struct.timespec, [3 x i64] }
%struct.timespec = type { i64, i64 }
%struct.dirent = type { i64, i64, i16, i8, [256 x i8] }

@.str = private unnamed_addr constant [6 x i8] c"%s/%s\00", align 1
@.str.17 = private unnamed_addr constant [3 x i8] c"%s\00", align 1
@.str.18 = private unnamed_addr constant [34 x i8] c"could not open directory \22%s\22: %m\00", align 1
@.str.19 = private unnamed_addr constant [2 x i8] c".\00", align 1
@.str.20 = private unnamed_addr constant [3 x i8] c"..\00", align 1
@.str.21 = private unnamed_addr constant [29 x i8] c"could not stat file \22%s\22: %m\00", align 1
@.str.22 = private unnamed_addr constant [38 x i8] c"could not read symbolic link \22%s\22: %m\00", align 1
@.str.23 = private unnamed_addr constant [38 x i8] c"symbolic link \22%s\22 target is too long\00", align 1
@.str.24 = private unnamed_addr constant [10 x i8] c"pg_tblspc\00", align 1
@.str.25 = private unnamed_addr constant [7 x i8] c"pg_wal\00", align 1
@.str.26 = private unnamed_addr constant [34 x i8] c"could not read directory \22%s\22: %m\00", align 1
@.str.27 = private unnamed_addr constant [35 x i8] c"could not close directory \22%s\22: %m\00", align 1

; Function Attrs: nounwind uwtable
define internal void @recurse_dir(ptr noundef %0, ptr noundef %1, ptr noundef %2) #0 {
  %4 = alloca ptr, align 8
  %5 = alloca ptr, align 8
  %6 = alloca ptr, align 8
  %7 = alloca ptr, align 8
  %8 = alloca ptr, align 8
  %9 = alloca [1024 x i8], align 16
  %10 = alloca %struct.stat, align 8
  %11 = alloca [2048 x i8], align 16
  %12 = alloca [2048 x i8], align 16
  %13 = alloca i32, align 4
  %14 = alloca [1024 x i8], align 16
  %15 = alloca i32, align 4
  store ptr %0, ptr %4, align 8
  store ptr %1, ptr %5, align 8
  store ptr %2, ptr %6, align 8
  call void @llvm.lifetime.start.p0(i64 8, ptr %7) #7
  call void @llvm.lifetime.start.p0(i64 8, ptr %8) #7
  call void @llvm.lifetime.start.p0(i64 1024, ptr %9) #7
  %16 = load ptr, ptr %5, align 8
  %17 = icmp ne ptr %16, null
  br i1 %17, label %18, label %23

18:                                               ; preds = %3
  %19 = getelementptr inbounds [1024 x i8], ptr %9, i64 0, i64 0
  %20 = load ptr, ptr %4, align 8
  %21 = load ptr, ptr %5, align 8
  %22 = call i32 (ptr, i64, ptr, ...) @pg_snprintf(ptr noundef %19, i64 noundef 1024, ptr noundef @.str, ptr noundef %20, ptr noundef %21)
  br label %27

23:                                               ; preds = %3
  %24 = getelementptr inbounds [1024 x i8], ptr %9, i64 0, i64 0
  %25 = load ptr, ptr %4, align 8
  %26 = call i32 (ptr, i64, ptr, ...) @pg_snprintf(ptr noundef %24, i64 noundef 1024, ptr noundef @.str.17, ptr noundef %25)
  br label %27

27:                                               ; preds = %23, %18
  %28 = getelementptr inbounds [1024 x i8], ptr %9, i64 0, i64 0
  %29 = call ptr @opendir(ptr noundef %28)
  store ptr %29, ptr %7, align 8
  %30 = load ptr, ptr %7, align 8
  %31 = icmp eq ptr %30, null
  br i1 %31, label %32, label %37

32:                                               ; preds = %27
  br label %33

33:                                               ; preds = %32
  %34 = getelementptr inbounds [1024 x i8], ptr %9, i64 0, i64 0
  call void (i32, i32, ptr, ...) @pg_log_generic(i32 noundef 4, i32 noundef 0, ptr noundef @.str.18, ptr noundef %34)
  call void @exit(i32 noundef 1) #9
  unreachable

35:                                               ; No predecessors!
  br label %36

36:                                               ; preds = %35
  br label %37

37:                                               ; preds = %36, %27
  br label %38

38:                                               ; preds = %167, %165, %37
  %39 = call ptr @__errno_location() #10
  store i32 0, ptr %39, align 4
  %40 = load ptr, ptr %7, align 8
  %41 = call ptr @readdir(ptr noundef %40)
  store ptr %41, ptr %8, align 8
  %42 = icmp ne ptr %41, null
  br i1 %42, label %43, label %168

43:                                               ; preds = %38
  call void @llvm.lifetime.start.p0(i64 144, ptr %10) #7
  call void @llvm.lifetime.start.p0(i64 2048, ptr %11) #7
  call void @llvm.lifetime.start.p0(i64 2048, ptr %12) #7
  %44 = load ptr, ptr %8, align 8
  %45 = getelementptr inbounds nuw %struct.dirent, ptr %44, i32 0, i32 4
  %46 = getelementptr inbounds [256 x i8], ptr %45, i64 0, i64 0
  %47 = call i32 @strcmp(ptr noundef %46, ptr noundef @.str.19) #8
  %48 = icmp eq i32 %47, 0
  br i1 %48, label %55, label %49

49:                                               ; preds = %43
  %50 = load ptr, ptr %8, align 8
  %51 = getelementptr inbounds nuw %struct.dirent, ptr %50, i32 0, i32 4
  %52 = getelementptr inbounds [256 x i8], ptr %51, i64 0, i64 0
  %53 = call i32 @strcmp(ptr noundef %52, ptr noundef @.str.20) #8
  %54 = icmp eq i32 %53, 0
  br i1 %54, label %55, label %56

55:                                               ; preds = %49, %43
  store i32 4, ptr %13, align 4
  br label %165, !llvm.loop !8

56:                                               ; preds = %49
  %57 = getelementptr inbounds [2048 x i8], ptr %11, i64 0, i64 0
  %58 = getelementptr inbounds [1024 x i8], ptr %9, i64 0, i64 0
  %59 = load ptr, ptr %8, align 8
  %60 = getelementptr inbounds nuw %struct.dirent, ptr %59, i32 0, i32 4
  %61 = getelementptr inbounds [256 x i8], ptr %60, i64 0, i64 0
  %62 = call i32 (ptr, i64, ptr, ...) @pg_snprintf(ptr noundef %57, i64 noundef 2048, ptr noundef @.str, ptr noundef %58, ptr noundef %61)
  %63 = getelementptr inbounds [2048 x i8], ptr %11, i64 0, i64 0
  %64 = call i32 @lstat(ptr noundef %63, ptr noundef %10) #7
  %65 = icmp slt i32 %64, 0
  br i1 %65, label %66, label %77

66:                                               ; preds = %56
  %67 = call ptr @__errno_location() #10
  %68 = load i32, ptr %67, align 4
  %69 = icmp eq i32 %68, 2
  br i1 %69, label %70, label %71

70:                                               ; preds = %66
  br label %76

71:                                               ; preds = %66
  br label %72

72:                                               ; preds = %71
  %73 = getelementptr inbounds [2048 x i8], ptr %11, i64 0, i64 0
  call void (i32, i32, ptr, ...) @pg_log_generic(i32 noundef 4, i32 noundef 0, ptr noundef @.str.21, ptr noundef %73)
  call void @exit(i32 noundef 1) #9
  unreachable

74:                                               ; No predecessors!
  br label %75

75:                                               ; preds = %74
  br label %76

76:                                               ; preds = %75, %70
  br label %77

77:                                               ; preds = %76, %56
  %78 = load ptr, ptr %5, align 8
  %79 = icmp ne ptr %78, null
  br i1 %79, label %80, label %87

80:                                               ; preds = %77
  %81 = getelementptr inbounds [2048 x i8], ptr %12, i64 0, i64 0
  %82 = load ptr, ptr %5, align 8
  %83 = load ptr, ptr %8, align 8
  %84 = getelementptr inbounds nuw %struct.dirent, ptr %83, i32 0, i32 4
  %85 = getelementptr inbounds [256 x i8], ptr %84, i64 0, i64 0
  %86 = call i32 (ptr, i64, ptr, ...) @pg_snprintf(ptr noundef %81, i64 noundef 2048, ptr noundef @.str, ptr noundef %82, ptr noundef %85)
  br label %93

87:                                               ; preds = %77
  %88 = getelementptr inbounds [2048 x i8], ptr %12, i64 0, i64 0
  %89 = load ptr, ptr %8, align 8
  %90 = getelementptr inbounds nuw %struct.dirent, ptr %89, i32 0, i32 4
  %91 = getelementptr inbounds [256 x i8], ptr %90, i64 0, i64 0
  %92 = call i32 (ptr, i64, ptr, ...) @pg_snprintf(ptr noundef %88, i64 noundef 2048, ptr noundef @.str.17, ptr noundef %91)
  br label %93

93:                                               ; preds = %87, %80
  %94 = getelementptr inbounds nuw %struct.stat, ptr %10, i32 0, i32 3
  %95 = load i32, ptr %94, align 8
  %96 = and i32 %95, 61440
  %97 = icmp eq i32 %96, 32768
  br i1 %97, label %98, label %103

98:                                               ; preds = %93
  %99 = load ptr, ptr %6, align 8
  %100 = getelementptr inbounds [2048 x i8], ptr %12, i64 0, i64 0
  %101 = getelementptr inbounds nuw %struct.stat, ptr %10, i32 0, i32 8
  %102 = load i64, ptr %101, align 8
  call void %99(ptr noundef %100, i32 noundef 1, i64 noundef %102, ptr noundef null)
  br label %164

103:                                              ; preds = %93
  %104 = getelementptr inbounds nuw %struct.stat, ptr %10, i32 0, i32 3
  %105 = load i32, ptr %104, align 8
  %106 = and i32 %105, 61440
  %107 = icmp eq i32 %106, 16384
  br i1 %107, label %108, label %114

108:                                              ; preds = %103
  %109 = load ptr, ptr %6, align 8
  %110 = getelementptr inbounds [2048 x i8], ptr %12, i64 0, i64 0
  call void %109(ptr noundef %110, i32 noundef 2, i64 noundef 0, ptr noundef null)
  %111 = load ptr, ptr %4, align 8
  %112 = getelementptr inbounds [2048 x i8], ptr %12, i64 0, i64 0
  %113 = load ptr, ptr %6, align 8
  call void @recurse_dir(ptr noundef %111, ptr noundef %112, ptr noundef %113)
  br label %163

114:                                              ; preds = %103
  %115 = getelementptr inbounds nuw %struct.stat, ptr %10, i32 0, i32 3
  %116 = load i32, ptr %115, align 8
  %117 = and i32 %116, 61440
  %118 = icmp eq i32 %117, 40960
  br i1 %118, label %119, label %162

119:                                              ; preds = %114
  call void @llvm.lifetime.start.p0(i64 1024, ptr %14) #7
  call void @llvm.lifetime.start.p0(i64 4, ptr %15) #7
  %120 = getelementptr inbounds [2048 x i8], ptr %11, i64 0, i64 0
  %121 = getelementptr inbounds [1024 x i8], ptr %14, i64 0, i64 0
  %122 = call i64 @readlink(ptr noundef %120, ptr noundef %121, i64 noundef 1024) #7
  %123 = trunc i64 %122 to i32
  store i32 %123, ptr %15, align 4
  %124 = load i32, ptr %15, align 4
  %125 = icmp slt i32 %124, 0
  br i1 %125, label %126, label %131

126:                                              ; preds = %119
  br label %127

127:                                              ; preds = %126
  %128 = getelementptr inbounds [2048 x i8], ptr %11, i64 0, i64 0
  call void (i32, i32, ptr, ...) @pg_log_generic(i32 noundef 4, i32 noundef 0, ptr noundef @.str.22, ptr noundef %128)
  call void @exit(i32 noundef 1) #9
  unreachable

129:                                              ; No predecessors!
  br label %130

130:                                              ; preds = %129
  br label %131

131:                                              ; preds = %130, %119
  %132 = load i32, ptr %15, align 4
  %133 = sext i32 %132 to i64
  %134 = icmp uge i64 %133, 1024
  br i1 %134, label %135, label %140

135:                                              ; preds = %131
  br label %136

136:                                              ; preds = %135
  %137 = getelementptr inbounds [2048 x i8], ptr %11, i64 0, i64 0
  call void (i32, i32, ptr, ...) @pg_log_generic(i32 noundef 4, i32 noundef 0, ptr noundef @.str.23, ptr noundef %137)
  call void @exit(i32 noundef 1) #9
  unreachable

138:                                              ; No predecessors!
  br label %139

139:                                              ; preds = %138
  br label %140

140:                                              ; preds = %139, %131
  %141 = load i32, ptr %15, align 4
  %142 = sext i32 %141 to i64
  %143 = getelementptr inbounds [1024 x i8], ptr %14, i64 0, i64 %142
  store i8 0, ptr %143, align 1
  %144 = load ptr, ptr %6, align 8
  %145 = getelementptr inbounds [2048 x i8], ptr %12, i64 0, i64 0
  %146 = getelementptr inbounds [1024 x i8], ptr %14, i64 0, i64 0
  call void %144(ptr noundef %145, i32 noundef 3, i64 noundef 0, ptr noundef %146)
  %147 = load ptr, ptr %5, align 8
  %148 = icmp ne ptr %147, null
  br i1 %148, label %149, label %153

149:                                              ; preds = %140
  %150 = load ptr, ptr %5, align 8
  %151 = call i32 @strcmp(ptr noundef %150, ptr noundef @.str.24) #8
  %152 = icmp eq i32 %151, 0
  br i1 %152, label %157, label %153

153:                                              ; preds = %149, %140
  %154 = getelementptr inbounds [2048 x i8], ptr %12, i64 0, i64 0
  %155 = call i32 @strcmp(ptr noundef %154, ptr noundef @.str.25) #8
  %156 = icmp eq i32 %155, 0
  br i1 %156, label %157, label %161

157:                                              ; preds = %153, %149
  %158 = load ptr, ptr %4, align 8
  %159 = getelementptr inbounds [2048 x i8], ptr %12, i64 0, i64 0
  %160 = load ptr, ptr %6, align 8
  call void @recurse_dir(ptr noundef %158, ptr noundef %159, ptr noundef %160)
  br label %161

161:                                              ; preds = %157, %153
  call void @llvm.lifetime.end.p0(i64 4, ptr %15) #7
  call void @llvm.lifetime.end.p0(i64 1024, ptr %14) #7
  br label %162

162:                                              ; preds = %161, %114
  br label %163

163:                                              ; preds = %162, %108
  br label %164

164:                                              ; preds = %163, %98
  store i32 0, ptr %13, align 4
  br label %165

165:                                              ; preds = %164, %55
  call void @llvm.lifetime.end.p0(i64 2048, ptr %12) #7
  call void @llvm.lifetime.end.p0(i64 2048, ptr %11) #7
  call void @llvm.lifetime.end.p0(i64 144, ptr %10) #7
  %166 = load i32, ptr %13, align 4
  switch i32 %166, label %187 [
    i32 0, label %167
    i32 4, label %38
  ]

167:                                              ; preds = %165
  br label %38, !llvm.loop !8

168:                                              ; preds = %38
  %169 = call ptr @__errno_location() #10
  %170 = load i32, ptr %169, align 4
  %171 = icmp ne i32 %170, 0
  br i1 %171, label %172, label %177

172:                                              ; preds = %168
  br label %173

173:                                              ; preds = %172
  %174 = getelementptr inbounds [1024 x i8], ptr %9, i64 0, i64 0
  call void (i32, i32, ptr, ...) @pg_log_generic(i32 noundef 4, i32 noundef 0, ptr noundef @.str.26, ptr noundef %174)
  call void @exit(i32 noundef 1) #9
  unreachable

175:                                              ; No predecessors!
  br label %176

176:                                              ; preds = %175
  br label %177

177:                                              ; preds = %176, %168
  %178 = load ptr, ptr %7, align 8
  %179 = call i32 @closedir(ptr noundef %178)
  %180 = icmp ne i32 %179, 0
  br i1 %180, label %181, label %186

181:                                              ; preds = %177
  br label %182

182:                                              ; preds = %181
  %183 = getelementptr inbounds [1024 x i8], ptr %9, i64 0, i64 0
  call void (i32, i32, ptr, ...) @pg_log_generic(i32 noundef 4, i32 noundef 0, ptr noundef @.str.27, ptr noundef %183)
  call void @exit(i32 noundef 1) #9
  unreachable

184:                                              ; No predecessors!
  br label %185

185:                                              ; preds = %184
  br label %186

186:                                              ; preds = %185, %177
  call void @llvm.lifetime.end.p0(i64 1024, ptr %9) #7
  call void @llvm.lifetime.end.p0(i64 8, ptr %8) #7
  call void @llvm.lifetime.end.p0(i64 8, ptr %7) #7
  ret void

187:                                              ; preds = %165
  unreachable
}