; Function Attrs: nounwind uwtable
define internal fastcc void @recurse_dir(ptr noundef %0, ptr noundef %1, ptr noundef %2) unnamed_addr #0 {
  %4 = alloca [1024 x i8], align 16
  %5 = alloca %struct.stat, align 8
  %6 = alloca [2048 x i8], align 16
  %7 = alloca [2048 x i8], align 16
  %8 = alloca [1024 x i8], align 16
  call void @llvm.lifetime.start.p0(i64 1024, ptr nonnull %4) #11
  %.not = icmp eq ptr %1, null
  br i1 %.not, label %11, label %9

9:                                                ; preds = %3
  %10 = call i32 (ptr, i64, ptr, ...) @pg_snprintf(ptr noundef nonnull %4, i64 noundef 1024, ptr noundef nonnull @.str, ptr noundef %0, ptr noundef nonnull %1) #11
  br label %13

11:                                               ; preds = %3
  %12 = call i32 (ptr, i64, ptr, ...) @pg_snprintf(ptr noundef nonnull %4, i64 noundef 1024, ptr noundef nonnull @.str.17, ptr noundef %0) #11
  br label %13

13:                                               ; preds = %11, %9
  %14 = call ptr @opendir(ptr noundef nonnull %4)
  %15 = icmp eq ptr %14, null
  br i1 %15, label %20, label %.preheader

.preheader:                                       ; preds = %13
  %16 = tail call ptr @__errno_location() #13
  store i32 0, ptr %16, align 4
  %17 = call ptr @readdir(ptr noundef nonnull %14) #11
  %.not2940 = icmp eq ptr %17, null
  br i1 %.not2940, label %._crit_edge, label %sub_0.lr.ph

sub_0.lr.ph:                                      ; preds = %.preheader
  %18 = getelementptr inbounds nuw i8, ptr %5, i64 24
  %19 = getelementptr inbounds nuw i8, ptr %5, i64 48
  br label %sub_0

20:                                               ; preds = %13
  call void (i32, i32, ptr, ...) @pg_log_generic(i32 noundef 4, i32 noundef 0, ptr noundef nonnull @.str.18, ptr noundef nonnull %4) #11
  call void @exit(i32 noundef 1) #12
  unreachable

sub_0:                                            ; preds = %sub_0.lr.ph, %67
  %21 = phi ptr [ %17, %sub_0.lr.ph ], [ %68, %67 ]
  call void @llvm.lifetime.start.p0(i64 144, ptr nonnull %5) #11
  call void @llvm.lifetime.start.p0(i64 2048, ptr nonnull %6) #11
  call void @llvm.lifetime.start.p0(i64 2048, ptr nonnull %7) #11
  %22 = getelementptr inbounds nuw i8, ptr %21, i64 19
  %23 = load i8, ptr %22, align 1
  %.not41 = icmp eq i8 %23, 46
  br i1 %.not41, label %.tail, label %.tail33.thread

.tail:                                            ; preds = %sub_0
  %24 = getelementptr inbounds nuw i8, ptr %21, i64 20
  %25 = load i8, ptr %24, align 1
  %26 = icmp eq i8 %25, 0
  br i1 %26, label %67, label %sub_135, !llvm.loop !8

sub_135:                                          ; preds = %.tail
  %27 = getelementptr inbounds nuw i8, ptr %21, i64 20
  %28 = load i8, ptr %27, align 1
  %.not43 = icmp eq i8 %28, 46
  br i1 %.not43, label %.tail33, label %.tail33.thread

.tail33:                                          ; preds = %sub_135
  %29 = getelementptr inbounds nuw i8, ptr %21, i64 21
  %30 = load i8, ptr %29, align 1
  %31 = icmp eq i8 %30, 0
  br i1 %31, label %67, label %.tail33.thread, !llvm.loop !8

.tail33.thread:                                   ; preds = %sub_0, %sub_135, %.tail33
  %32 = call i32 (ptr, i64, ptr, ...) @pg_snprintf(ptr noundef nonnull %6, i64 noundef 2048, ptr noundef nonnull @.str, ptr noundef nonnull %4, ptr noundef nonnull %22) #11
  %33 = call i32 @lstat(ptr noundef nonnull %6, ptr noundef nonnull %5) #11
  %34 = icmp slt i32 %33, 0
  br i1 %34, label %35, label %39

35:                                               ; preds = %.tail33.thread
  %36 = load i32, ptr %16, align 4
  %37 = icmp eq i32 %36, 2
  br i1 %37, label %39, label %38

38:                                               ; preds = %35
  call void (i32, i32, ptr, ...) @pg_log_generic(i32 noundef 4, i32 noundef 0, ptr noundef nonnull @.str.21, ptr noundef nonnull %6) #11
  call void @exit(i32 noundef 1) #12
  unreachable

39:                                               ; preds = %35, %.tail33.thread
  br i1 %.not, label %42, label %40

40:                                               ; preds = %39
  %41 = call i32 (ptr, i64, ptr, ...) @pg_snprintf(ptr noundef nonnull %7, i64 noundef 2048, ptr noundef nonnull @.str, ptr noundef nonnull %1, ptr noundef nonnull %22) #11
  br label %44

42:                                               ; preds = %39
  %43 = call i32 (ptr, i64, ptr, ...) @pg_snprintf(ptr noundef nonnull %7, i64 noundef 2048, ptr noundef nonnull @.str.17, ptr noundef nonnull %22) #11
  br label %44

44:                                               ; preds = %42, %40
  %45 = load i32, ptr %18, align 8
  %46 = trunc i32 %45 to i16
  %trunc = and i16 %46, -4096
  switch i16 %trunc, label %67 [
    i16 -32768, label %47
    i16 16384, label %49
    i16 -24576, label %50
  ]

47:                                               ; preds = %44
  %48 = load i64, ptr %19, align 8
  call void %2(ptr noundef nonnull %7, i32 noundef 1, i64 noundef %48, ptr noundef null) #11
  br label %67

49:                                               ; preds = %44
  call void %2(ptr noundef nonnull %7, i32 noundef 2, i64 noundef 0, ptr noundef null) #11
  call fastcc void @recurse_dir(ptr noundef %0, ptr noundef nonnull %7, ptr noundef %2)
  br label %67

50:                                               ; preds = %44
  call void @llvm.lifetime.start.p0(i64 1024, ptr nonnull %8) #11
  %51 = call i64 @readlink(ptr noundef nonnull %6, ptr noundef nonnull %8, i64 noundef 1024) #11
  %52 = and i64 %51, 2147483648
  %.not32 = icmp eq i64 %52, 0
  br i1 %.not32, label %54, label %53

53:                                               ; preds = %50
  call void (i32, i32, ptr, ...) @pg_log_generic(i32 noundef 4, i32 noundef 0, ptr noundef nonnull @.str.22, ptr noundef nonnull %6) #11
  call void @exit(i32 noundef 1) #12
  unreachable

54:                                               ; preds = %50
  %55 = and i64 %51, 2147483647
  %56 = icmp samesign ugt i64 %55, 1023
  br i1 %56, label %57, label %58

57:                                               ; preds = %54
  call void (i32, i32, ptr, ...) @pg_log_generic(i32 noundef 4, i32 noundef 0, ptr noundef nonnull @.str.23, ptr noundef nonnull %6) #11
  call void @exit(i32 noundef 1) #12
  unreachable

58:                                               ; preds = %54
  %59 = getelementptr inbounds nuw [1024 x i8], ptr %8, i64 0, i64 %55
  store i8 0, ptr %59, align 1
  call void %2(ptr noundef nonnull %7, i32 noundef 3, i64 noundef 0, ptr noundef nonnull %8) #11
  br i1 %.not, label %63, label %60

60:                                               ; preds = %58
  %61 = call i32 @strcmp(ptr noundef nonnull dereferenceable(1) %1, ptr noundef nonnull dereferenceable(10) @.str.24) #10
  %62 = icmp eq i32 %61, 0
  br i1 %62, label %65, label %63

63:                                               ; preds = %60, %58
  %bcmp = call i32 @bcmp(ptr noundef nonnull dereferenceable(7) %7, ptr noundef nonnull dereferenceable(7) @.str.25, i64 7)
  %64 = icmp eq i32 %bcmp, 0
  br i1 %64, label %65, label %66

65:                                               ; preds = %63, %60
  call fastcc void @recurse_dir(ptr noundef %0, ptr noundef nonnull %7, ptr noundef %2)
  br label %66

66:                                               ; preds = %65, %63
  call void @llvm.lifetime.end.p0(i64 1024, ptr nonnull %8) #11
  br label %67

67:                                               ; preds = %47, %66, %49, %44, %.tail, %.tail33
  call void @llvm.lifetime.end.p0(i64 2048, ptr nonnull %7) #11
  call void @llvm.lifetime.end.p0(i64 2048, ptr nonnull %6) #11
  call void @llvm.lifetime.end.p0(i64 144, ptr nonnull %5) #11
  store i32 0, ptr %16, align 4
  %68 = call ptr @readdir(ptr noundef nonnull %14) #11
  %.not29 = icmp eq ptr %68, null
  br i1 %.not29, label %._crit_edge, label %sub_0

._crit_edge:                                      ; preds = %67, %.preheader
  %69 = load i32, ptr %16, align 4
  %.not30 = icmp eq i32 %69, 0
  br i1 %.not30, label %71, label %70

70:                                               ; preds = %._crit_edge
  call void (i32, i32, ptr, ...) @pg_log_generic(i32 noundef 4, i32 noundef 0, ptr noundef nonnull @.str.26, ptr noundef nonnull %4) #11
  call void @exit(i32 noundef 1) #12
  unreachable

71:                                               ; preds = %._crit_edge
  %72 = call i32 @closedir(ptr noundef nonnull %14)
  %.not31 = icmp eq i32 %72, 0
  br i1 %.not31, label %74, label %73

73:                                               ; preds = %71
  call void (i32, i32, ptr, ...) @pg_log_generic(i32 noundef 4, i32 noundef 0, ptr noundef nonnull @.str.27, ptr noundef nonnull %4) #11
  call void @exit(i32 noundef 1) #12
  unreachable

74:                                               ; preds = %71
  call void @llvm.lifetime.end.p0(i64 1024, ptr nonnull %4) #11
  ret void
}